(dp0
S'user54'
p1
S'-----BEGIN PUBLIC KEY-----\nMIGfMA0GCSqGSIb3DQEBAQUAA4GNADCBiQKBgQC2VKy0OMXoFvuxGeP/n92VV3wI\nt2X/kIG2BhuY6WE+SrvUOuxR4hH5FT7fFWR0kVPBHJmUwwu8egJo+D7UyYF0d7A0\nUjVzFL1t02OsPcUnIXWs0PlONz+nbhDDB//IWyR5iJejwCrZt0fBpISPmlSxyjp+\nuThtdPX1JtSQVv7iHQIDAQAB\n-----END PUBLIC KEY-----'
p2
sS'user55'
p3
S'-----BEGIN PUBLIC KEY-----\nMIGfMA0GCSqGSIb3DQEBAQUAA4GNADCBiQKBgQCGerSXOOco7OfCtEEPNF0qvk8N\nhPcireyjByKqV5/3ebmbjZqSn6V4gsx8CxYAyfLywQ64Lfh3fu9hOI/ffPJVnu3o\nDeryvdsVymTVv39b8afzw0YmOcJOKUYVUk6zhpcQjXOymCj7jvmRLtm4rIev561v\nw7PrvuxsAVthk7u7cwIDAQAB\n-----END PUBLIC KEY-----'
p4
sS'user56'
p5
S'-----BEGIN PUBLIC KEY-----\nMIGfMA0GCSqGSIb3DQEBAQUAA4GNADCBiQKBgQDF/7U/ROUwIqR4V1N7sVCyQYJd\nTMo1+26pdkomzyKiu+cSS/mO09pxMwbYj1C8uB8H1XIphgRai+mrTnA+1YZuwPhb\nMFM9o6dWiodcSBP4mvW9SWU8ZibuQ4IZdQnnwR/tlsYjQ1zS+pb7OVEXB3QU+veT\n72cmpcR0sSnwF8KV+wIDAQAB\n-----END PUBLIC KEY-----'
p6
sS'user57'
p7
S'-----BEGIN PUBLIC KEY-----\nMIGfMA0GCSqGSIb3DQEBAQUAA4GNADCBiQKBgQDXS2NPpQn2eyLo/Df2mJzUQy/Z\nuxn4IYJCACv8XJ8HdMD1ZyA4cCCUQxoW5srUlechAHBN4sq1rvTq+5jxU7+4A8rC\nXrOTxLIThBhWEysR6z44ipx2dEO6KY1bnGY0TP7oPctoUKD3wTCL9HOP4irNwncM\nMBxziJ9kxWP8K3hdxwIDAQAB\n-----END PUBLIC KEY-----'
p8
sS'user50'
p9
S'-----BEGIN PUBLIC KEY-----\nMIGfMA0GCSqGSIb3DQEBAQUAA4GNADCBiQKBgQC+YEqMCcZX4mqAmbcTaED09HR/\nv/zsIyudW/WpVn89JDzT8IZpeqA//oFY5Dkf6E6YvSlQ+x7TcSaXCaAFiSUuOXvP\nOMvwPwPCYdueS7KUl1hNj2lzcKQczytc6Fo9pbKezb95YZH66MDM1wQE4PzX6zx9\nrKCUcFrlXeAjMkdDawIDAQAB\n-----END PUBLIC KEY-----'
p10
sS'user51'
p11
S'-----BEGIN PUBLIC KEY-----\nMIGfMA0GCSqGSIb3DQEBAQUAA4GNADCBiQKBgQCizwnyJotcQDoTAcB87ECTZ7Lj\nKvt6pSL91plWA4Tsh5mSoj7btE2p7XlGKzpR7UVf7N23KOTXwdzWQWIJkd543r60\nALrMg7yr34TSJ9u8v6ofP+GMCDV43vf5zwc5xewyTd6erL/J+VgIcWfz8jnA0Oex\nYr9gMZYtMxagevUebQIDAQAB\n-----END PUBLIC KEY-----'
p12
sS'user52'
p13
S'-----BEGIN PUBLIC KEY-----\nMIGfMA0GCSqGSIb3DQEBAQUAA4GNADCBiQKBgQDTBpVK3vFeDFOW6bGIGg3Uu7Gv\n6sYhLqhxAVwhyV87huH2cCg5ZdWdHfgPB5XlwdPQuAJhgM2KtldAtzBUzUUMHj6u\nvSrUQ6ovPMYPmUq0CraKlBfrAgTqBkzOZUL0m72acwZThDtUxWWJ9tfgej758Gx2\n3IwQMcWdjfmi1vMkXwIDAQAB\n-----END PUBLIC KEY-----'
p14
sS'user53'
p15
S'-----BEGIN PUBLIC KEY-----\nMIGfMA0GCSqGSIb3DQEBAQUAA4GNADCBiQKBgQCqn09pungPLIAqV4v033sj4jU0\nSQp3XLJG7VyTNCAbN8A2qTy/0hzzPuwD27LcnDkUDSIrO05vDVZ2CgZR7fgAg9GE\nhf0blrw+IBoYYCAylEkYL6W3TIZ8BGztUh1CtXFZsV6Bnr6Fx4RjdsVXUU91baaD\nB2H1hyE8ExY3P7JzGQIDAQAB\n-----END PUBLIC KEY-----'
p16
sS'user58'
p17
S'-----BEGIN PUBLIC KEY-----\nMIGfMA0GCSqGSIb3DQEBAQUAA4GNADCBiQKBgQD0MfxT6A5O0ftaGMyaRsTNxfaN\napB4k9ugWQFCOv/6rBK+juTBv/V7LTWkUe4JlNd1guGMLauepZ7P52iKMu7kow+q\niMBNE6zEwdCBJpvm9le4vDyyM8weaqODNNwu/C5dHxeT9VnNugHFIfMdM/jexsD9\nSMpS582fxkbVMxbGqQIDAQAB\n-----END PUBLIC KEY-----'
p18
sS'user59'
p19
S'-----BEGIN PUBLIC KEY-----\nMIGfMA0GCSqGSIb3DQEBAQUAA4GNADCBiQKBgQCRsGrKbV/nNryNIe1aKRZ8hRJd\njMNVi1iEmJiihIq4ad+yRwr2MYHIdhJMcyCsjClxlIjKpAL42Jb2nYJtPHMgcWig\nxauLcSg109sp40t5ALPeSBV0VeQUj1GQJ5L6qFjR5C+7dO8Fs8B6pCqrj/fmtFnT\n146BZ8SoZhHGr+JDtQIDAQAB\n-----END PUBLIC KEY-----'
p20
sS'user43'
p21
S'-----BEGIN PUBLIC KEY-----\nMIGfMA0GCSqGSIb3DQEBAQUAA4GNADCBiQKBgQDFBnK9qtM1hocE70lIYh/1yMFu\nbS7ib8h/dNVVx4ZfwwWXuMpBmtLtcppzTTgAnzr3J0Q0EpRMZL4YO2LF0CBjgbfB\nE1FTkFToLALRcxkL1opEtiHpDTFPDtz38m9uwDx8/dZ/fytqdiuvxSeSKgDPTfFx\nNHwcTH+aUSRmYOHStwIDAQAB\n-----END PUBLIC KEY-----'
p22
sS'user42'
p23
S'-----BEGIN PUBLIC KEY-----\nMIGfMA0GCSqGSIb3DQEBAQUAA4GNADCBiQKBgQC4a+sxipIKFRULkpbeLBFktfdz\nCKRf8u9wIlkj/25+Yuf9EPGMZB8+4NUgFs7sTmponIAYPwMd/+7c456kSWef8/jg\n4jnPqOnJa8rGVFiQplQCRNrytvFyXMH+Lh4ZF8xnfS5g0dX9aqsRbLLm8F7xgz+q\nbuoXfm+icU8BshhgCwIDAQAB\n-----END PUBLIC KEY-----'
p24
sS'user41'
p25
S'-----BEGIN PUBLIC KEY-----\nMIGfMA0GCSqGSIb3DQEBAQUAA4GNADCBiQKBgQC/vRW57WB5bbrUH+rvC/PGK3cW\nBC+JitMAOZAoq3HUu8/UT86uDPEFaCCwquBEJMxONHuofHPHHcR8/pgpEmrLJFyn\nD6/qsLeznVmncUwnviTap98ymG+6e+o8OKjPEtZLoJbd3NO6Qf+TZ1cnXm79MIfg\nbyTK6SS5ix/X/FzYhwIDAQAB\n-----END PUBLIC KEY-----'
p26
sS'user40'
p27
S'-----BEGIN PUBLIC KEY-----\nMIGfMA0GCSqGSIb3DQEBAQUAA4GNADCBiQKBgQCzwpQua53bY+rQnXg+mOFGEbBi\nsajGE+mPJkxdS4MiykadQSKSMjI/5aqteLnwh7/6Rpc5mQihJG3zfYvmKdShEgvR\no/ZNu9NqPYiBBdv0VD5q4pGX60n78rwKhWikzfD4NCvgdHtLtW2lCsvTMJHiSxnt\nn4/UEqSbdl/HDQBU/QIDAQAB\n-----END PUBLIC KEY-----'
p28
sS'user47'
p29
S'-----BEGIN PUBLIC KEY-----\nMIGfMA0GCSqGSIb3DQEBAQUAA4GNADCBiQKBgQCuTbfs0pq173ZCgUEnfZB/QD0y\nlTAnyEXawVUgzfQF/PiEGfn9OJRtuI2sucJYgPvBXQKehiIcrlHuubYfi++gDQK3\ntWAbk5MsFQqeg3cv2UIP/eI51QHeLlX/dv0GH/1xHYIpFYL+uD9vcg0yyaIZuIk1\nAUdiGfsl2qDJ80pRGQIDAQAB\n-----END PUBLIC KEY-----'
p30
sS'user46'
p31
S'-----BEGIN PUBLIC KEY-----\nMIGfMA0GCSqGSIb3DQEBAQUAA4GNADCBiQKBgQC0Wdes5tWQKoknKSVKHHwXnayG\nki6TQLG+/tYNHczxVsf+Tkx3gZMdaRI4n42kDJ80aSu5OBCbaEHD0h5eF+oXW6Fz\nEQrU34cMFXnmhmlu+zIOAcjGGUKVDkTGCteDYVlc6lnIUli402FmThysRYNiMqfz\no+ez5ltk5ckP6tNMDQIDAQAB\n-----END PUBLIC KEY-----'
p32
sS'user45'
p33
S'-----BEGIN PUBLIC KEY-----\nMIGfMA0GCSqGSIb3DQEBAQUAA4GNADCBiQKBgQCYgESP2FuQXB78meKGFKIeeJ62\n6RuUEdFgsghe+habs0VTFqSzLmY20zxwnIsbZdSs2WCXopZI/yQjwU2ryj9/ReMi\nlvu2j4ZD58ag3Oc45y9MvQfcQW7zKAPdDkMRM0RWBp17gZw2Yxn2rUec484RUH7d\niauPpDW/WmK7HSnnKQIDAQAB\n-----END PUBLIC KEY-----'
p34
sS'user44'
p35
S'-----BEGIN PUBLIC KEY-----\nMIGfMA0GCSqGSIb3DQEBAQUAA4GNADCBiQKBgQCYdycLOXBSIBF/N0Vsd/gKp1UV\n2fSMj/iIPsnPcv5FKHyW14clw9gyMAeo4ZaESG6QJtJ2SIb7+Hn05tasmS3bLxOW\nzyYrBBPOEVq5nW1PhO/y3l2+A11wLTYE1Ri+qPIxncx7sKyRfVNEwzuBYNF+O0nP\nkLXKuKvvXMhY59WhnwIDAQAB\n-----END PUBLIC KEY-----'
p36
sS'user49'
p37
S'-----BEGIN PUBLIC KEY-----\nMIGfMA0GCSqGSIb3DQEBAQUAA4GNADCBiQKBgQC4U3QyqhfptfRUvZ+x48fe6gG+\n5z6kNG3DzKfWutn4LLp/sTeJj7NjQpR94SHRhIMzpglY67DifDAuqall3f9eI1qG\ntuI1NQoaJlwmn2hZygf/z7+Xl5IsoKDn/q+YMRVl3Q3OhMK5lBNN/75JhEyp/f6H\nY6eZEaW4iKX8l9bxjQIDAQAB\n-----END PUBLIC KEY-----'
p38
sS'user48'
p39
S'-----BEGIN PUBLIC KEY-----\nMIGfMA0GCSqGSIb3DQEBAQUAA4GNADCBiQKBgQDNF8b/RZXQtIY2tipzlGQSW+sT\nTgY2Ivfv6QJg61vV2HqIfWbVgvgL6CkgMw2JZxMJxu8gKXNDu0iG9HH+O5jHVtFh\nZ1GLh5Dpjm7mD9s4Hydi2nycVHJNGki07kSul3Tm0CM2rgKFKol/wlVDJWYvcVW1\nSg1YJHGhZx6FjGNG9QIDAQAB\n-----END PUBLIC KEY-----'
p40
sS'user36'
p41
S'-----BEGIN PUBLIC KEY-----\nMIGfMA0GCSqGSIb3DQEBAQUAA4GNADCBiQKBgQCuGdcd1NEIrVWC/bjTAWQUfjhC\n6yJMQF/udGKvO7Yp+Dlnxbhk1gNQrmD9ICjyEOGrKaubCJnrI0Zcjvfml3n9FhJU\nJeD6XrE6dSY0znUoNc8juBaee1dy/29plyXuQOft1fL0MsckfcSWZzJ/64Cpdh51\n5oGeUqQjiZdI6Y/vmQIDAQAB\n-----END PUBLIC KEY-----'
p42
sS'user37'
p43
S'-----BEGIN PUBLIC KEY-----\nMIGfMA0GCSqGSIb3DQEBAQUAA4GNADCBiQKBgQDEIB+2z9XU+4bJ+UKIwtBTKOMj\nq15eBgkkaZdwLU2JG+oWCPK/u9BGEKJLd0mmWAX5AhyXKzUJezGW4BdomaJ2bA8V\nkeF4gIidl6pRrI8pmqMLIpA0QSw6ExHVYZF73sycvgYtln4tSaPBRij0Dw3A/PtS\nUjg67kqznZ6FZYIjIwIDAQAB\n-----END PUBLIC KEY-----'
p44
sS'user34'
p45
S'-----BEGIN PUBLIC KEY-----\nMIGfMA0GCSqGSIb3DQEBAQUAA4GNADCBiQKBgQC8KOLyXmgO5WhxjV4zW+kld88d\n6uYd2JRvMD+s0rwAu88Vss9Xama/6gdj+Sqe0nIv/VNQjchRGjKWhRXM3Lc1z9LG\n4wYkN/e7xuNrTt+gijaPkQeSCOFi0BQ/WX6oIqhjOJjT1E1O1+LnXL+rrjAI6YeK\nGm6lOLnwx/dXtIrODQIDAQAB\n-----END PUBLIC KEY-----'
p46
sS'user35'
p47
S'-----BEGIN PUBLIC KEY-----\nMIGfMA0GCSqGSIb3DQEBAQUAA4GNADCBiQKBgQDCZlSkKjyW8KffbY4LAY51/yIq\nopM847cOxrMqt5/hwrMwlPEIEnv2NLFRc6kqqCBDYIFn0palAMbbN01NcN7PDONn\nlnSy3kDeDXXargkrFX/tiLl5QNk8LO9WWBqNUxKBsnGzYypfPSLO1FIopqPc6fpO\n4PycW4CQzV29MoLPjQIDAQAB\n-----END PUBLIC KEY-----'
p48
sS'user32'
p49
S'-----BEGIN PUBLIC KEY-----\nMIGfMA0GCSqGSIb3DQEBAQUAA4GNADCBiQKBgQDkV2AG1vqzPnMv2jjfD9Z3tTwX\nYRp4Vwdo01IeoHohwU5J2bD1/VXiPxd7SkwGsEPK+K+rwQcL/rtCf1VSbxu26yW1\npUI6BW9iAyewJfuk6RRGwnwq6HPlvScCXnHx3S91LMHG+WPmLT/Y7VYA+rgr0lC9\nNhJAu8W7DkDkrxPEOQIDAQAB\n-----END PUBLIC KEY-----'
p50
sS'user33'
p51
S'-----BEGIN PUBLIC KEY-----\nMIGfMA0GCSqGSIb3DQEBAQUAA4GNADCBiQKBgQDjmkZ8jvBuurAtDlFFQFfJR7rx\nJ5I8I1so2DkLdZ8We2kHTjkhP+A9CIyAuVaqhOsjCSOloOmhJbv0828AJ/G0fNPE\n4MK0+D1n8P1+Qbur+xF9u3EYimQRtlmYrp4AQ+HYO0kx8ePeEFKQdMau9ffRk0aa\nTD8KpjNYO6OiB4C4pwIDAQAB\n-----END PUBLIC KEY-----'
p52
sS'user30'
p53
S'-----BEGIN PUBLIC KEY-----\nMIGfMA0GCSqGSIb3DQEBAQUAA4GNADCBiQKBgQCWtmbOG8Vr+tkQEzRnpWykuDw/\nCU69uPJS5Nw1Gi9eXom6a9D4KIWQvrhArC7aTg1q1A+XgEfKTsz0otqkYtzYgAne\nHZv4NDThUJerxppWQX+JeQYVYroimM4wgBd7hV4pAsXE45A6EM5pjW7rSSoAUYyJ\nH8larjUymm4iqSBQSwIDAQAB\n-----END PUBLIC KEY-----'
p54
sS'user31'
p55
S'-----BEGIN PUBLIC KEY-----\nMIGfMA0GCSqGSIb3DQEBAQUAA4GNADCBiQKBgQCiZVcCqzvic1tV9+4+PprqV49q\nOzNF/zqHzuukw8WlB6pxeKgyU4ENUWAQjQzyffxJ5oNesn/DvKViYqJPAfE5KsIG\ne3RnXZUhZQYrkrQxl5QD7elvD2mOSyjCE5vdIO+1t+xE6DS63C1H+iCJ7oL94QN7\nL80PXC2dfVxbmIvdfwIDAQAB\n-----END PUBLIC KEY-----'
p56
sS'user38'
p57
S'-----BEGIN PUBLIC KEY-----\nMIGfMA0GCSqGSIb3DQEBAQUAA4GNADCBiQKBgQCnGilbw1zcaZDJUV9NyMundHP3\nGobi2Sc+MaGO3OI8mEz3rEjCEt390QK6Wes+IuDUDdd109wnw9mWrDbRkA5fTe/B\nMi/4Ws8cQnY/XiniPI8ydNo5N6kqfi8PdKytVZD07s0IXn8PmGmnHddSEts9Gc7r\nVnst+blaxwXCVK4kWQIDAQAB\n-----END PUBLIC KEY-----'
p58
sS'user39'
p59
S'-----BEGIN PUBLIC KEY-----\nMIGfMA0GCSqGSIb3DQEBAQUAA4GNADCBiQKBgQDFVnV4cmYNmsxUxwmyZaiEQ8UP\n77yObHTxNlwDFmBAgS60svyrv8ogpSDCYtS11zBIUlZMgdiUmNblc1EzrhVvJgd7\nvAWD8d2hqK71FoifQYWP54gp5EAMsLSLKUIZNXDSuTD4xMwsCx/akU+nCMEiiuKB\nNKJFu0u38xY5V/fI7QIDAQAB\n-----END PUBLIC KEY-----'
p60
sS'user25'
p61
S'-----BEGIN PUBLIC KEY-----\nMIGfMA0GCSqGSIb3DQEBAQUAA4GNADCBiQKBgQDKbnMM1F1eYK/klc9yHfDdyh9K\n/bnmm74DNt2Z6nwUmE+dxXzcBzgMnqaXutqzgDyMBUE6XCGCa8VESuA0sKWk1tFn\nS9fjQkBb6CowHEmmLVC+boYixlxbAaqtLhhIt3Zty1rHhejhpHOx6z3Z1n66jxgX\nusil2cjMhb0MavHpJwIDAQAB\n-----END PUBLIC KEY-----'
p62
sS'user24'
p63
S'-----BEGIN PUBLIC KEY-----\nMIGfMA0GCSqGSIb3DQEBAQUAA4GNADCBiQKBgQClw6ISAU1/FHp2E9UGoc57wogi\nSNrUdDielN6PluIHydQcaFzh+9QN2qTcIYwfMop1knOeN3BQWBLWdTjHykdshbdo\nwnoeuWARkhBWxeomWU3lDpIgYkAaIqnrZiZgg5llnrQiVbKsHHuvlOncQp36JXry\nYItss7XGLYxpDXQHRwIDAQAB\n-----END PUBLIC KEY-----'
p64
sS'user27'
p65
S'-----BEGIN PUBLIC KEY-----\nMIGfMA0GCSqGSIb3DQEBAQUAA4GNADCBiQKBgQCqiiwRSlXkne0615Is13iTy3Xk\nMNzpaUeOyVy1pqUpYWjUHljq274NOXAZpFS0qE20W7gHEwf8OUivWpmidY1R8ty3\ntIUA6ljUE0FXylj3fMNKHAWZDcOGzbo8QyTirpqEjeGo9HrmcORcwV12AaHubj1T\ncqLbBAhnDDoxyBIXSQIDAQAB\n-----END PUBLIC KEY-----'
p66
sS'user26'
p67
S'-----BEGIN PUBLIC KEY-----\nMIGfMA0GCSqGSIb3DQEBAQUAA4GNADCBiQKBgQCo+sK/ihfYon83j5CxK5toHcvm\nLKj2hQuxOgBysiIByyEhDokiaVAUXX2Dyt5HenE7KPfoLcjGKsL+iP1WKzp/uaR8\nEV8avtk5W6QXeCUQMDXRfB6DkIXQfbeaGIhyNlRz1OCOr8W+zGDKCJNGesTMu3c/\njw/GKENZfCjT1GGWgQIDAQAB\n-----END PUBLIC KEY-----'
p68
sS'user21'
p69
S'-----BEGIN PUBLIC KEY-----\nMIGfMA0GCSqGSIb3DQEBAQUAA4GNADCBiQKBgQCYZA9BkZ2GZdAS9pjyuT+D4JpU\nIMeQQ6ISq78vCRBh1vl7uzl8HTkWB/a9AKe8H4iqsnhf6we7uzZL3cFgwBeDtwu0\n9KdhMiaaQBUUrYgh6XGfm5fS2m5rJvAMn0aogUX2D6Jv1XXvWC/+FKFd9DQzhX9i\nPwzWYDSQjzMsPqdh7wIDAQAB\n-----END PUBLIC KEY-----'
p70
sS'user20'
p71
S'-----BEGIN PUBLIC KEY-----\nMIGfMA0GCSqGSIb3DQEBAQUAA4GNADCBiQKBgQDmp2oArPBMskwyFQYmzwsL4ztS\ngjJEFoOWizQAObXk6zRS8BsUJbvbSVf3MmWNgaO9IQ6/P0Rvxbw7K42ZTRd2Hsj0\ndwE8ANBfGKp4yC7rY+5HbhO+jD7HrnGmOpTewXFwbsHmU5JZn/RsVEfjIXFhe5Ot\nyr7zc/bHEvJ2UafgiwIDAQAB\n-----END PUBLIC KEY-----'
p72
sS'user23'
p73
S'-----BEGIN PUBLIC KEY-----\nMIGfMA0GCSqGSIb3DQEBAQUAA4GNADCBiQKBgQCr5ftVEMmGL6tBWAkO1OqR6Pn6\nVlBnhTQWey2Ah5kePKdzhhB31MxyqxHZLgf5jqqnUsBhBEoQwjJ7kz19XLkUDUDI\nooagn/pr2UJchA+dO+iWZRtMh8+rQxHWx40YqkX0swSuwwfxrWH7xBSWZ/vL69Qn\nDyRWVaUNVc5NS3Y6kwIDAQAB\n-----END PUBLIC KEY-----'
p74
sS'user22'
p75
S'-----BEGIN PUBLIC KEY-----\nMIGfMA0GCSqGSIb3DQEBAQUAA4GNADCBiQKBgQCyUYDHIHZG1RY/W82jIZVOMtpZ\nFDhyYZ9ey49zJ13DnHgDuS0xRNxJl70StyeQW6W8L/eqfn7ANg8CdoQo2f+luXer\nqt2/0Nz3AGXyHUwgLhzhzpxYdy4X7f68U6RgzZyVtzgT06HstT0rwfmP0F9qeWMh\nRRV4MMEDCgPJMTu9dwIDAQAB\n-----END PUBLIC KEY-----'
p76
sS'user29'
p77
S'-----BEGIN PUBLIC KEY-----\nMIGfMA0GCSqGSIb3DQEBAQUAA4GNADCBiQKBgQDVpHgSpfRgTxDgrNq0uDCQcIDk\noy8PivX7exws3YA10u3dOPyj2O4nNwpqiMRxSkHcRVCmh2Kn/4CREWHdTihgBA6D\nOB/z9E8tQ8tkYSAAH4Svt+aVviqr0GTv3hJkXbuKLaE2am67P00wpkTXN1HyczLG\nB/xTUUu4M1YW9h2SqwIDAQAB\n-----END PUBLIC KEY-----'
p78
sS'user28'
p79
S'-----BEGIN PUBLIC KEY-----\nMIGfMA0GCSqGSIb3DQEBAQUAA4GNADCBiQKBgQCZAGTXOsaBK9Ig650VK31bJ686\ndOkkiGKmVkC7N2EcZLEQn/2/54sHRKjXM/ejvbnq++7p/t/n9IPw9ddVixSDBNgb\n3oXpBACkFk0YSlVBzXbf+AGHYvxM2G9IW/azwsc+A9w+N+ldT60ODw6JGqaTDn6Q\nCv+kEhd6283TPqNajQIDAQAB\n-----END PUBLIC KEY-----'
p80
sS'user98'
p81
S'-----BEGIN PUBLIC KEY-----\nMIGfMA0GCSqGSIb3DQEBAQUAA4GNADCBiQKBgQDVPYKzXi9EP2anMSrkzG+Dx2XZ\nh11S9ptb5mB14Jzsin8bEaErxuG7BsPMIDL6CT2Lc8ukjnae/YvWlcSn4QJuJxeS\nXww44SxjT6WwcwkkWOVD3q0n40tqPuDnUAsmFppXzsxFT975KaCyqUsklTOVgZaK\nENqHqL5JJNxvXW4WVQIDAQAB\n-----END PUBLIC KEY-----'
p82
sS'user99'
p83
S'-----BEGIN PUBLIC KEY-----\nMIGfMA0GCSqGSIb3DQEBAQUAA4GNADCBiQKBgQDElscUKgBj0ku5KrWVYpUdtyda\nIFyLOI5zPNh0bAnHpra3t9srehF1H5/evww6llLHmykZSREiQDaU9lW51m3+GrKA\ntpPDjAObgla3lP1F//4f1yfq0SflBgVSse/7R/clJBckR1wIrXmDFCmw0YyHARxc\nCv3QH91awYe5Y9NQGQIDAQAB\n-----END PUBLIC KEY-----'
p84
sS'user90'
p85
S'-----BEGIN PUBLIC KEY-----\nMIGfMA0GCSqGSIb3DQEBAQUAA4GNADCBiQKBgQDo0XOH3dIY8blvGq0rIUsX/BS3\nPn8FpTNtXOsdn1+CMIyjQ2In59dbAHuJg062Y1Z3gePIoao2HIKZGdGWe9jT9dP7\nV5lRcSvKaeFuB0ulP+meNYWzUIgeUgfVyAtaJ1HW6i0a/7V1lfuk3oXhjTq4HW+1\n3ZxPqCMMMlXteqeD1wIDAQAB\n-----END PUBLIC KEY-----'
p86
sS'user91'
p87
S'-----BEGIN PUBLIC KEY-----\nMIGfMA0GCSqGSIb3DQEBAQUAA4GNADCBiQKBgQDEkCpIctYJtabKihOaRXNNjjx7\nEKsGiYnKBCknA0H3UL0/njEctKnwX8LtfgsXf3wFSRx8+mR1ExwOooYKeym5Vd6b\nQ5z4bDtB1PNMZniwFBnugRh3Trq3+qhFwP/3oFj9UgphYmdJEa9bqz/uFUsd4q5+\nnLgpj6kZN+PPTxZ37wIDAQAB\n-----END PUBLIC KEY-----'
p88
sS'user92'
p89
S'-----BEGIN PUBLIC KEY-----\nMIGfMA0GCSqGSIb3DQEBAQUAA4GNADCBiQKBgQCz3o1ObAIuKYuAk8yXtk+1lvDy\nt5XjN1/KZVyJJtGiVKI+Dbyi+3f0nCVL+n/mCXdMDxJ4sQ69A2AIUUs4cAPDZ3x8\n+JeLWkRv9S4pBRDpFWZ7elqCQhOTKBZV6hZbFyokRo39bcBVFsdApZWoj28NvDJO\noiyExkE2jYnpyrLNBQIDAQAB\n-----END PUBLIC KEY-----'
p90
sS'user93'
p91
S'-----BEGIN PUBLIC KEY-----\nMIGfMA0GCSqGSIb3DQEBAQUAA4GNADCBiQKBgQCpLyd+u1V/FAxZ0EwsVTzZUL32\n7NCpw/iDZ6chMDUvac2ZJpt0u6ooo42NiY/ZVWMuH15CQl23C/vz4jjZw6N/DTkh\ng6SqvT2YSs0hTSuPBKi3VxwlgGAvSF9hSqVEWAbZ3gSRVqVx/yB1H5oUZO9kVYdb\nWFI9ScR0t3+OPAjPYwIDAQAB\n-----END PUBLIC KEY-----'
p92
sS'user94'
p93
S'-----BEGIN PUBLIC KEY-----\nMIGfMA0GCSqGSIb3DQEBAQUAA4GNADCBiQKBgQC2uAFzgrlFl5Q/iK6EP9ONMTCR\nbjZVRQGL9jbGX7jX5tb0r7Yg74bCUppXwp20VvlwvORREAzQMmuMmA8BwS8MgDqj\nkcnfdJUI/DLEYQUkYTlHF96Q/6oVM8IBvwDx+u+2hGyRro+Bg3p4xCt/zH4CgSPt\ngdjMtEDoyDN2vCg/GQIDAQAB\n-----END PUBLIC KEY-----'
p94
sS'user95'
p95
S'-----BEGIN PUBLIC KEY-----\nMIGfMA0GCSqGSIb3DQEBAQUAA4GNADCBiQKBgQCph02K3pD3fn3V/xU6MCdw3Dyf\nW1Wd1/0f9HWU2yj2YoUWhZbAoS1KjYF3AoLViQuzINMPWJrsBsn4SwGWtwGInPa2\nXISjiTgtNPD1ca9hH1IBigWQj53HcOiCssgiGR71Lv+TevoGg0XASUSSnJah2r1d\n8T8DwuPL+UEtXCYp3QIDAQAB\n-----END PUBLIC KEY-----'
p96
sS'user96'
p97
S'-----BEGIN PUBLIC KEY-----\nMIGfMA0GCSqGSIb3DQEBAQUAA4GNADCBiQKBgQCiEbFfZxdo7Zk030thjwI0TE/5\nUhhkrQDQ7zXxFXIGi0YKCwMOvGnmvQPIzQDqBTUmIEzwOo/wa4dANUP/DjktEXkw\nvpArJgTsRFgVXqb7cNEQi39fRAezLOxBTAkY3R12kTwaEyeY/0HdV2cZT0gKJ3NG\n3BXiLVH1NICLoK9tLwIDAQAB\n-----END PUBLIC KEY-----'
p98
sS'user97'
p99
S'-----BEGIN PUBLIC KEY-----\nMIGfMA0GCSqGSIb3DQEBAQUAA4GNADCBiQKBgQC3ZV6asyq7OD1sAIjpjwY5mBu9\nKBZkSQLO0KQ4bE8JSSOHQJlCbGoTS23W4oBfpsGLlBt18WebvyOEBoYfs1TQC9WP\nkhNkWJwGy0tFx7Yx/wTUoSAIl1SAUjX8pxq3NtamTRWDl2+uQVSWHYjgda9q4EyC\nnaSTkvXnu4UjWXMxGwIDAQAB\n-----END PUBLIC KEY-----'
p100
sS'user10'
p101
S'-----BEGIN PUBLIC KEY-----\nMIGfMA0GCSqGSIb3DQEBAQUAA4GNADCBiQKBgQCfg4iGpepuJhmvxjliieFsI4Pr\n2z+99ljmNbtkW0tYDASOfb0LmItOudI36QTB/NQ7o85fz1UWfYpR5RPw6/VHI7WR\nuXCW4OYSgfmKVQM7p2TTh1QKsh4ZNHufqy+MV4iX40asRE3NT4OK7ANVpIzA/DIV\nkCw+C8qf2tWoGfKmuwIDAQAB\n-----END PUBLIC KEY-----'
p102
sS'user11'
p103
S'-----BEGIN PUBLIC KEY-----\nMIGfMA0GCSqGSIb3DQEBAQUAA4GNADCBiQKBgQC+L4Wily4jK+s23AtLr4l+NLCH\nnuWbiLMkIsvl4iiXrez+Cl+iIEhQ+pkNo64RGVnZ8VWKiJp6qVHIgwK9jVcKOiih\nrZzowMEhSjeyRRLI7/fCG71w70+hCshI7cKlJ8LED8evO4F8vC9XbBBD2irsOpX0\nNCMXgTiKap2cmpcITwIDAQAB\n-----END PUBLIC KEY-----'
p104
sS'user12'
p105
S'-----BEGIN PUBLIC KEY-----\nMIGfMA0GCSqGSIb3DQEBAQUAA4GNADCBiQKBgQDtU1vAIAq2L4390TMAbLJlmTn0\nw+VDrNElfGf2bS1Bj29cFJSWo2ltM+okvmW+QEe6Xv9FiPHrnZJ8JZhPQtELRhKC\nrc2UeSFeb74w9FSRcdtYybMwPq3yd06F6dbZUCqvJVIzJxK78QawqIhSJSGQv+XK\n4tEn32EL6TyowGlk9wIDAQAB\n-----END PUBLIC KEY-----'
p106
sS'user13'
p107
S'-----BEGIN PUBLIC KEY-----\nMIGfMA0GCSqGSIb3DQEBAQUAA4GNADCBiQKBgQDYysi2Xc28/rjIVBlzjkZ0VLfy\nr7uT845gJFnd+OUJBewnNxJsFZKTmw2VPPV32pzf59NEbl5GTT1VRYh7fnFCVpd0\nt3AKJoMXyex9q4mqxQmrsLd5a4kMrfweesO7PxI/TWi4S7sz28Jy8A0WNEdBquGm\n5vw33vzlbUbh8b4ONwIDAQAB\n-----END PUBLIC KEY-----'
p108
sS'user14'
p109
S'-----BEGIN PUBLIC KEY-----\nMIGfMA0GCSqGSIb3DQEBAQUAA4GNADCBiQKBgQCWMwa+nPql1dpAPvEJwKYxJ1/V\nnJeAPeVK1T+Oevr3Jf/oAaP3Ezv9Gdm2DJ0xPSMhppP3vMNu42uTioaxM3O6GOFs\nAGLJzMBFQC4AUypXUxBBrebnLSMxGwebxNV+UlptuiSTHosj9IXUJUtre9ICBs8v\nW8nMCQN5fonQfmSXnwIDAQAB\n-----END PUBLIC KEY-----'
p110
sS'user15'
p111
S'-----BEGIN PUBLIC KEY-----\nMIGfMA0GCSqGSIb3DQEBAQUAA4GNADCBiQKBgQCtZgha+97wt8kaTyobFu9y+EvN\nbWtU4j/jKllNqfO8ixf0g+kG7BEVQTJauSGWzuPPCeTsz0/ZgGcFMbCmG1fVdThG\nzuY/6HKnBTbtU+5C3iXZVqWJQXhE7dznZBJss2B5f7vcoPuABqKui3+SMLL84aPQ\nDfMnQguC5RHmFNM1dwIDAQAB\n-----END PUBLIC KEY-----'
p112
sS'user16'
p113
S'-----BEGIN PUBLIC KEY-----\nMIGfMA0GCSqGSIb3DQEBAQUAA4GNADCBiQKBgQDI3IfN9AA7cLSfr/ZqPLMkYU+K\nTDDrMA0AxTqCBFmEwvWV8sPW8UOaHzAbTAooVDlC4fitK6oWCGQ1moVr0n4A6FJv\nd1SAeEq5rAPQkBsBKWeAoZRGlmyCgXPuteyOcvVXU+ihQFhTCXiZoeCd5vHtlvll\nQUE8L426ChgiotEVhQIDAQAB\n-----END PUBLIC KEY-----'
p114
sS'user17'
p115
S'-----BEGIN PUBLIC KEY-----\nMIGfMA0GCSqGSIb3DQEBAQUAA4GNADCBiQKBgQDEdhQuT2bNYAzwiNDuJ/r85neP\nN+4AWmnDKC1snQCXiBAxHG0XD3R8bPmJ47FTsyU+C3cK0McKSa6mxtD9ggtp3RmR\nYHTBfedfbR7tCIaRwDJJa2vOLK8EKPGZCqIlIeg1pvUp9t/HTKYFnCRfYcamRRAB\nxWy5f0GGeFp/k1HKrwIDAQAB\n-----END PUBLIC KEY-----'
p116
sS'user18'
p117
S'-----BEGIN PUBLIC KEY-----\nMIGfMA0GCSqGSIb3DQEBAQUAA4GNADCBiQKBgQDyM66rGKDrUAHrOJ2SqvNdwVAX\nYjhV0j56hFOsJpbsGb/zuyCebWy2QqgBklcEURPFNTmHnIFP5BxmvalbA8If9buY\nZPsq6hK41i7fo4xJ+HmC1nmnzdg7CoxtXVZCjggANwlpmzMQey1Q2azMVeISOB/R\nePxcQOAOxg9FNt938wIDAQAB\n-----END PUBLIC KEY-----'
p118
sS'user19'
p119
S'-----BEGIN PUBLIC KEY-----\nMIGfMA0GCSqGSIb3DQEBAQUAA4GNADCBiQKBgQDMmxT26B40a47aBT+DIA73xQQY\nTMP+TsA7topQ87Vm5c/p/pRAFZmlJGKp8GDQxOhxugdRD2xjRjx/AtnnzZgLVWTW\n2vLkxU07Zwo3zYkjf5U8K/47TJEhDrH3rHL9Mo4puvE5TwIftIuvaOvWd76PiSlB\n6goWO1Un5TPWfx0B2QIDAQAB\n-----END PUBLIC KEY-----'
p120
sS'user87'
p121
S'-----BEGIN PUBLIC KEY-----\nMIGfMA0GCSqGSIb3DQEBAQUAA4GNADCBiQKBgQC2beq9oBW+CvGtFTtPBI74g5Bz\nmFWGK5CCZ72wn/W7pVPy+f4Lqi+hUEhvyLgxkB6V0dLS9kDBhuKPDkG31WYU2uCJ\nZXrrU0gDWw9wP0fbiOx8CfPxTGyZtCWFABnOYBXi4UYtNhy3OKads8lUORqXyP78\njOZTKxyInaC6yjOHIwIDAQAB\n-----END PUBLIC KEY-----'
p122
sS'user86'
p123
S'-----BEGIN PUBLIC KEY-----\nMIGfMA0GCSqGSIb3DQEBAQUAA4GNADCBiQKBgQDFRqJOXM4qgco9xRRAus0gtIsb\noh4TjMwgXTUR3KCyUZbKV1qOzSeLOot6HAFUde8KO28Xsxh910fz409b8xfvcEe/\n0+Z2+YhZREDb9RfEnyyItC2PMOx/WBO/fC3Y/TBUs45UkhXPUxM7gr+3dwTQiOH1\no6lBhRnGaIgHPk2ghQIDAQAB\n-----END PUBLIC KEY-----'
p124
sS'user85'
p125
S'-----BEGIN PUBLIC KEY-----\nMIGfMA0GCSqGSIb3DQEBAQUAA4GNADCBiQKBgQC6owgxVJcTwDQQxAhpbiy0tSVh\n/iT4yFx7YTKLHeCWuopCwZwY9CtrPNtt7J/FdT68G1ya6QngF0VySmpaqAxcUWns\nB+lfs3LUK2D2lKscd3M2RnWf0wgQMV/p2dGuGvXPqNlxCFzXMyDYxbbxn0cCBKgM\n/SQgEIOZqd082wZvQQIDAQAB\n-----END PUBLIC KEY-----'
p126
sS'user84'
p127
S'-----BEGIN PUBLIC KEY-----\nMIGfMA0GCSqGSIb3DQEBAQUAA4GNADCBiQKBgQCcQG6ZIiOTmsqs+6DxWBnObDZ4\nix1/GZO7/k2t4G2T2EJwkT7Z9EaoU/64KHXDXinwxYGPdsXOkUIL2PmcRsIacZrp\nprlwmXDz+IQQXDrpDuohIph62WhJivGuIS94eS4YUqd/IOysIJ7CfATE52L2LXFf\nTYBZRrF1HE48D1A01wIDAQAB\n-----END PUBLIC KEY-----'
p128
sS'user83'
p129
S'-----BEGIN PUBLIC KEY-----\nMIGfMA0GCSqGSIb3DQEBAQUAA4GNADCBiQKBgQDDVbMNvk2TIRIQ3DLQVcaUsypT\nLOK2LreyAmtUqJ8v3dA7JgE47uKtAgfTy/xbQRZLyVttsWGM0yD3Hr8gfOwdOSnl\nHayYmg3MCj+nGVSn258JmKEdzo4UKslKPB/HizdCjmBLPaOQsD96Otk9rl2eqVTJ\n2HZQ7eN4KugSXoNusQIDAQAB\n-----END PUBLIC KEY-----'
p130
sS'user82'
p131
S'-----BEGIN PUBLIC KEY-----\nMIGfMA0GCSqGSIb3DQEBAQUAA4GNADCBiQKBgQCq3QN1X81QNZPxIscvFlJV7i9p\nYVNV4b5cq3CZnH/LdWNRZD+m8mUPP5tjvocTB9vyNxAlsKsNMpVPDjadk4PA4k1p\nxdWdQYWI/MgHat/9/goLpdIb/faWs+ijYEONSx+2OWxkPan8/kbX+EN2zHUeTEza\nFFEFWsKYWQdos1vL9wIDAQAB\n-----END PUBLIC KEY-----'
p132
sS'user81'
p133
S'-----BEGIN PUBLIC KEY-----\nMIGfMA0GCSqGSIb3DQEBAQUAA4GNADCBiQKBgQDQu1IhXPRE1LM40rKuEmtqE7oP\nBJggzZL7xESV8XyGgGHes4E5EC8mV0aexUojGhuvxTvffiwoSdWXAcwn3pBHWn67\nc7fSGDvmRovjFLrGq2ro3x3CP5FaPuodoEDHOPy4npaoQLk3cr5e1VJtzyeZAGZ1\nGg5v5aynO+t4SfwHBQIDAQAB\n-----END PUBLIC KEY-----'
p134
sS'user80'
p135
S'-----BEGIN PUBLIC KEY-----\nMIGfMA0GCSqGSIb3DQEBAQUAA4GNADCBiQKBgQChweEHzZcJsXwocQYRvI47PcIV\nOjmNaiaY3E3Tkq3cqs0aR7H/vy09yF4ViMY7aEP5CDrxfZq9BntLQayF9Q1Ct0DM\nKUaZsB4i441nAvIHT+Kzl3VT0BSvahXh35o4R25kemmtjqhiwMEuV4MBMFRAiF2C\n2AaCWytT3f/U3gtXOQIDAQAB\n-----END PUBLIC KEY-----'
p136
sS'user89'
p137
S'-----BEGIN PUBLIC KEY-----\nMIGfMA0GCSqGSIb3DQEBAQUAA4GNADCBiQKBgQC+R1wXJzHiNv9xvWRc3RNrxf0D\nHCrGCVSVCvKHfaPbiJ0nXElU0QCScOa/teIv2ktAyZcZOatJYWlf4K9/rflt07xI\ntTCKHN5gjQo4reWgXK2wkh4uZKFvTEWlOM/o0thpfxIWa7z4AEk+SYCwMijDibmX\nPKTkS7ByhgFPvmdHrQIDAQAB\n-----END PUBLIC KEY-----'
p138
sS'user88'
p139
S'-----BEGIN PUBLIC KEY-----\nMIGfMA0GCSqGSIb3DQEBAQUAA4GNADCBiQKBgQC/6e4JSvFS8rrK5L83FcpvnTOg\nNphn0kKoL89woa32CGN2jT7J+fqY1eAwxr96vl3w1fca7xZq34HCRhQ3BjhVFows\n/WKDUfS4yjFrCqj5k8ObCMTYZSG2xNv1RNeHigr00DdV/PzV/+F0wYugdlpvh+aY\n9jxAfOLW0V3G84TviQIDAQAB\n-----END PUBLIC KEY-----'
p140
sS'user6'
p141
S'-----BEGIN PUBLIC KEY-----\nMIGfMA0GCSqGSIb3DQEBAQUAA4GNADCBiQKBgQCnfa65fS5CiubXRMnIJPT+GsMa\n4i9ghP1V7rU/z9nFKECeHc2d13T6jMfgpHPYrjNbf+dMpt73UUKDoB+w1ZSjQqdk\nRYS/A71MDencbtgz2MGVn2A2egR44Dm+Zp5b+ydINc2gMNjpZWww4Vtk4hKlz8Si\ncb4Xwu8/oQy+MeP8JQIDAQAB\n-----END PUBLIC KEY-----'
p142
sS'user7'
p143
S'-----BEGIN PUBLIC KEY-----\nMIGfMA0GCSqGSIb3DQEBAQUAA4GNADCBiQKBgQDSe5/jpbSfyeFlQSXFEzOUkDYT\nnqb5HZBsO0qF44nQmfD7agu9bcE7iuPMo6Jinh8WTPgx91EBpoFFjZQT28lGClY6\nb6noy/HY5EWin+zggS74qM/F+IX+ZQ5JSXgdlP9K954W/i83ZYLTrRNII3LluVK3\n8JLCf3ovzV0BgHXC9wIDAQAB\n-----END PUBLIC KEY-----'
p144
sS'user4'
p145
S'-----BEGIN PUBLIC KEY-----\nMIGfMA0GCSqGSIb3DQEBAQUAA4GNADCBiQKBgQDJEGSnmw8e4QtdfwmVuLNQgdMu\n+PcInN5rpUqN48pAxuXPrl60dwwD9YcA9uINMnnfSe2i7jNnl5hZ4PK153Nr6BIf\n78/7qkqFqcIkc33LqxvE5FA+tQVYuCN6T1X14mUmcEEPDO4BGgDtS3b4HZopsBq+\n1/4wWL5BuVP0MXruoQIDAQAB\n-----END PUBLIC KEY-----'
p146
sS'user5'
p147
S'-----BEGIN PUBLIC KEY-----\nMIGfMA0GCSqGSIb3DQEBAQUAA4GNADCBiQKBgQD0gwYQ4byFoK9FV0H+RJCkZ3Ik\nYqsDke+dhTrkd8CBlf7KnWOMswMZZF9zxbTMNJiG+jpNISQ5o03HK0PkqGmUWBFe\n+k6yxsVvFvIiL3jBAsKbiEl8TPatuygTQfHnk04Rp5RWXE8syYj9VZkQv9mB1UPh\ne2ob40flnuRcZVGVlQIDAQAB\n-----END PUBLIC KEY-----'
p148
sS'user2'
p149
S'-----BEGIN PUBLIC KEY-----\nMIGfMA0GCSqGSIb3DQEBAQUAA4GNADCBiQKBgQCshqnzc7zEVWw6mGdpvlHZ8gu+\nnWCuWX8iZo5Ne3d5TVhQrZ2d3Mhx+0+vH6tV0+NkAIQDmK/Banp+/P+IFkTgL2bJ\nmEDIm7es2m54UjsLBhdRNjt9u36CgtVhIzeTha8VHtUAdwsiG6uEo50OdOnD7AQN\nUNkogwPWw77uteKVEQIDAQAB\n-----END PUBLIC KEY-----'
p150
sS'user3'
p151
S'-----BEGIN PUBLIC KEY-----\nMIGfMA0GCSqGSIb3DQEBAQUAA4GNADCBiQKBgQC2yX0B/GfnRGybEIyU+xXBkYc+\n8zOotS/Kq5LAALmh+/rVP74f0qohRkNNSKaeIBtCIYm4RKJzsN35HbnuRRNgnWfi\nId+YvzPrc9Pp2USXRM8G7tUYTLjZG4bKWfK4Rtc/s96zn/WZR9armNReIG/ZcFoa\nWf+isHrYiwA1qggrowIDAQAB\n-----END PUBLIC KEY-----'
p152
sS'user0'
p153
S'-----BEGIN PUBLIC KEY-----\nMIGfMA0GCSqGSIb3DQEBAQUAA4GNADCBiQKBgQD7OEt4JTYn9g/fB+R5ka2xau6B\nMP8KgJrW8Vb1A28AwXtlLjvEshgOhZvCkufPjeIqijkh+vzTKgFCEFpb/z1k3kus\nY+Rhfg0Agv+Ypr1Krf9/LBVOzNaOTdSORm5JLgXWG9dZ7s97QflwysspNGnEakjM\nAaQ/w6KM7USTj3492wIDAQAB\n-----END PUBLIC KEY-----'
p154
sS'user1'
p155
S'-----BEGIN PUBLIC KEY-----\nMIGfMA0GCSqGSIb3DQEBAQUAA4GNADCBiQKBgQCyZp2slVWZmlBSc5pa8otp8oxQ\n4pFCXvGs5LzfR58alQnV4BawSt8QDZYA7+UmLisJjIPgaz9XjDUk4YmkjQ+cWLG/\nriO9DXEGqZ2wyTMl8+e9VO/c38ZQW2kGifT81pPCgNNxGkyWkVF2U0vUFHbGcIJe\nCe1lKoFHrTirgXnBhQIDAQAB\n-----END PUBLIC KEY-----'
p156
sS'user8'
p157
S'-----BEGIN PUBLIC KEY-----\nMIGfMA0GCSqGSIb3DQEBAQUAA4GNADCBiQKBgQC0oMPxFA8P6y0/t2UBEwKifV5b\nHQNIk9hKn8g0/ZkgQxMxMVOj+poQBargxqRmmgNge+nY86y/i/Ns8e1+GI3vi63e\nUF0tzA7JXYcFvEOhquI7HExIviJEziDPe2jDNf43BxeYLrGOH0FYo22LhinAqHWl\nfe1fnX4zId2/8iPHlwIDAQAB\n-----END PUBLIC KEY-----'
p158
sS'user9'
p159
S'-----BEGIN PUBLIC KEY-----\nMIGfMA0GCSqGSIb3DQEBAQUAA4GNADCBiQKBgQDMaZNTL28AUYKQwRYtxM/c9HF+\nJ8kqwXuOkTjvr1PLbPmF9o2Ey6uCJJ5FQ3/Fatv812CMPNlck3YWzWVjpiqxM1u8\nFkXQKsn9c9C30KwxsDmoeA0XolQixD0e+11C0U3/Pj8ArPfSAgcqGWcG1eQfIHtE\n/O/5tLKyarjaASj0SwIDAQAB\n-----END PUBLIC KEY-----'
p160
sS'user78'
p161
S'-----BEGIN PUBLIC KEY-----\nMIGfMA0GCSqGSIb3DQEBAQUAA4GNADCBiQKBgQDsitC9kzriuZycYMOd8dnZEY9A\nEtiQQU+KqH1BUe9pBJckfbwhb+ZzbrGogHaEHo8oIuWIIc3og4Mo6iBWb0+2UlQp\nNKHgHG9sdcnOEl+XU9RvjtCf+nEMAnZPX9D5mKelBDxsPgYrcY22qdlOIK06B2Ru\nAc4pp8dcy3+ROEyTWwIDAQAB\n-----END PUBLIC KEY-----'
p162
sS'user79'
p163
S'-----BEGIN PUBLIC KEY-----\nMIGfMA0GCSqGSIb3DQEBAQUAA4GNADCBiQKBgQDgpBfvFmTVEyg1Yz0aNZn3l+Bc\noBeWFj/LhPjdD0ntNmiUp88n6EXv3klmPIYmBMT2XR1nz8+LODj9P0R4iHMGz/Ya\n1fVXqRN80+Ow0oED+QBvuDAGLN9U8jfl5Asb/LyJPM3RoChTytTXbRjMW+2RlpJ2\nD/MRoV9fDJffJGPhAQIDAQAB\n-----END PUBLIC KEY-----'
p164
sS'user72'
p165
S'-----BEGIN PUBLIC KEY-----\nMIGfMA0GCSqGSIb3DQEBAQUAA4GNADCBiQKBgQDAnUI2RcVRBbgAXhuRjEEPg6W/\ni5a/8RSU+/TOHO6SHb/DU2WJeuMEARageRlFq5xX+j/MoZWzLmfA+OSnGjzqmMgJ\naZ3cjxRIeRa846YFRdpgUhep8osptsrhZrA4CGexntkrOo1rXgh8e21CkCgl0UeR\nZa0+roP19YTlSfLA6wIDAQAB\n-----END PUBLIC KEY-----'
p166
sS'user73'
p167
S'-----BEGIN PUBLIC KEY-----\nMIGfMA0GCSqGSIb3DQEBAQUAA4GNADCBiQKBgQDecxbqUaAVcIeUePDoC88Qqtbl\nlK3v/OGLNLjLQGTbfZHt0K0eDpFR9uuaugPeivWuEktDg9vhqrLtBKB8oESeycn5\nIAWC/8SDm0i8mq3ruT7RBfmdgK0qEMYJyrFxlr06/LZcF0hAJdGHWbSkfIwRFdOl\nrWxWDy/yAgsZR419TwIDAQAB\n-----END PUBLIC KEY-----'
p168
sS'user70'
p169
S'-----BEGIN PUBLIC KEY-----\nMIGfMA0GCSqGSIb3DQEBAQUAA4GNADCBiQKBgQDB9G5NnIHYsIl2TGa6tGSa0Q74\nsGxnG0QA9bo0ZXp5ebxMLyCOQPXfHlUsHZyOxfZqZQi3c/OcYE3KvVWP1DFfUNl7\nLD8K5N0DEu1BvKKrmULrHfx2Byp0N4yARfjDMOovuw1xFcmj5SN8oa30hV22tapc\n7HyA6V4bigM3818aqwIDAQAB\n-----END PUBLIC KEY-----'
p170
sS'user71'
p171
S'-----BEGIN PUBLIC KEY-----\nMIGfMA0GCSqGSIb3DQEBAQUAA4GNADCBiQKBgQDAgN40YpChCbaBSGuTxvUzXffw\nHdg3zKMjLwiZHhlp83Bqj10PGNmIh2Uf7AlHf4+D5ODNuFb8lR+nR/zFG3uzzn0K\nTBps967bwS3Jz7w6A2auemDhehNnopAU0pb2gWPDZx0zemlAvUa81cexCYorCFUn\nPISC80xmZ1YfKBq9OwIDAQAB\n-----END PUBLIC KEY-----'
p172
sS'user76'
p173
S'-----BEGIN PUBLIC KEY-----\nMIGfMA0GCSqGSIb3DQEBAQUAA4GNADCBiQKBgQC7Ek3+CO9aVIaQwaejAFvSNhec\n5En2SyDDv6DgNbWPv6/Kh6kgZaATGEj7VSzSiWw8oiCIcnm8dVu4raf5xHBJrHxX\nBsExxeSNXx9ao7lbQufb4JuEvYOEkTsjx8fpsgxJmlINL/fyS0Rs3VtsnW8Fg75f\nNqnZrh0VGuCN2IBQPwIDAQAB\n-----END PUBLIC KEY-----'
p174
sS'user77'
p175
S'-----BEGIN PUBLIC KEY-----\nMIGfMA0GCSqGSIb3DQEBAQUAA4GNADCBiQKBgQDRhL9iqwI2bSd0x86ELqOvd7Kq\nkfzCXnxHHCyXmPoXVdNNkx9nnYPkEE1Sdcl7sT1VFQsK1GtTsCcXn0Mxile6f+8Z\nKG4Gs4AGQUGbPfya9AaooaVXp3GEKzfTnXlVSuY8XFubO8j9FAWtoVFswReyIWVw\nAyO/70K9CilT1AWXpQIDAQAB\n-----END PUBLIC KEY-----'
p176
sS'user74'
p177
S'-----BEGIN PUBLIC KEY-----\nMIGfMA0GCSqGSIb3DQEBAQUAA4GNADCBiQKBgQC57/uO6fM35Ffxg0yqifkjnpJQ\nHONZ4K5+y+YldItpF1rOdsAwnkzEpwhnMvQmmXHtVU+4RUNs8o5AzAcElTl4L6h1\nZ3K86TBWEY4ECoHJcKw1GmNUs1/+xs/6/UNq1mMnftyzKsS+4+bkejGNpBFjtS8b\nPHR6rXPjUiQOFWeTlQIDAQAB\n-----END PUBLIC KEY-----'
p178
sS'user75'
p179
S'-----BEGIN PUBLIC KEY-----\nMIGfMA0GCSqGSIb3DQEBAQUAA4GNADCBiQKBgQDJZRUmM+fmdSEs0xGvQAcRdC1+\nfCWEd7Wv9mMmNzPX8dpEjxrke9c0h4YRSkhpRT8LdssptUtnn3Qf14UXjmXNd4+6\nsgu7CC1uiI/Wi643C8d6qFOd4FEiNSwaufuQpr+5I3LOfouLtMQPCwEGPfJC3o29\nF1zWJ9dPF2yzSxfDUQIDAQAB\n-----END PUBLIC KEY-----'
p180
sS'user69'
p181
S'-----BEGIN PUBLIC KEY-----\nMIGfMA0GCSqGSIb3DQEBAQUAA4GNADCBiQKBgQDSvOrdrKBsWosXrLIAlfz5ExVV\n8pjjkr+pDJzRw/IpN9ZwY4ul+U1DH+XXJjZC1u+0KNlxvHFPz86s4SWsx+RPbsbb\nrGm6XtNVSIZcfe/6vLB0ojNV2iIAfsl5Z1EUL02xeKAkVZ3DB7Zqn2FjwGOuxscT\nJluef1g/Qf1c7CiUqQIDAQAB\n-----END PUBLIC KEY-----'
p182
sS'user68'
p183
S'-----BEGIN PUBLIC KEY-----\nMIGfMA0GCSqGSIb3DQEBAQUAA4GNADCBiQKBgQDByFUInGkwMOyrJ4//k1Nt/JXS\nlUHW5cn1kjgxBHENQfZi7yv7i+2rsvdxRJ4x2/IkGUIYUUTC2qQXvxhfLMG7EFLR\n8QQnH5IYo8vkonklehVGvvwLPxNIg9Nf4FvqjeDfikR+GfwqvQge4Z5IVXCjqC7o\nR4oSvdLbm1hwAJR/lwIDAQAB\n-----END PUBLIC KEY-----'
p184
sS'user61'
p185
S'-----BEGIN PUBLIC KEY-----\nMIGfMA0GCSqGSIb3DQEBAQUAA4GNADCBiQKBgQDUnc46wsrwJqIZuVGMdKVWdG9Z\n6xVHTk9xXbOtVkOb3uros/kuAYY/XHEilil74h6PcQqePWNTe+38hn4KW/eGRdr0\noV+eJxmlb9kAG8Ln+RTxjPQpZpR4qOxhwohkVMLfY0aRoAx+GnbyU94PXUriAUfk\nQFQG31B83wKi7ZDENQIDAQAB\n-----END PUBLIC KEY-----'
p186
sS'user60'
p187
S'-----BEGIN PUBLIC KEY-----\nMIGfMA0GCSqGSIb3DQEBAQUAA4GNADCBiQKBgQDAXdOQ2k63/ZBZmGA6oxAxOx+2\nXxlZIy8j93Vdj5bpn30WkwxDo0Tl5D8BoNzQ1lj+1Tx/Bwqj28n1FUDkOQPABXaZ\nY9y86aF18f46rc4wKIJ8frQqI5WAVtyZQ7CMDgAjJYjB4jE97SpcPdLLgY4cxaGr\nyq1KWGUcd2BlHJfQEQIDAQAB\n-----END PUBLIC KEY-----'
p188
sS'user63'
p189
S'-----BEGIN PUBLIC KEY-----\nMIGfMA0GCSqGSIb3DQEBAQUAA4GNADCBiQKBgQDhHBeTiSF4VbFAflHrD3qJvMCt\nGRLqZj4PunAlVovK8+bXSMgncSCZ6hHXGL+UGWlykQBjAqP4R1AZ7Hiwop2yQD1A\ndU9aPTSxzVh4jyfi5wGBS6On4jU8bIh5CWPAdTBJAKVMMeg0NmQA4ja3a/8xSC84\nUiar82VFZ8/GEE0WyQIDAQAB\n-----END PUBLIC KEY-----'
p190
sS'user62'
p191
S'-----BEGIN PUBLIC KEY-----\nMIGfMA0GCSqGSIb3DQEBAQUAA4GNADCBiQKBgQCw9Pu1rZigjzp/TA6UgOKHW/T5\nx0Dzj4dlZvKbi3NtJ01d/DU0BDY3VBUNssEn3uihnGQTr7WRlGBOIRfvca92y9OW\n8HbFE/dGXrnB8EQDqJl8FWJtqKH2nOKYLOGRhAMlzKgCgeip7QRmF7w95//hLZDY\nHSzpZlhaL7iaMAlo2QIDAQAB\n-----END PUBLIC KEY-----'
p192
sS'user65'
p193
S'-----BEGIN PUBLIC KEY-----\nMIGfMA0GCSqGSIb3DQEBAQUAA4GNADCBiQKBgQCk5BE6ywO7w2stoGz1C9GfGdqy\nGX7YFew7uOW8OLq3y08Gx/M7zfZ1uavsB4GqX99Vrh4qOq4fkGwKVABb5kDuGwid\nqOUGBPFmM22yWVbtAfaYztp1Q5gRIUz9fGXuJLnY6Z8ENVxccrByK/5R2nR9KrCi\nK2O8Fnf4BTDlEjhbcQIDAQAB\n-----END PUBLIC KEY-----'
p194
sS'user64'
p195
S'-----BEGIN PUBLIC KEY-----\nMIGfMA0GCSqGSIb3DQEBAQUAA4GNADCBiQKBgQCmA7lNK4E2Nmn7xOEybuK7f334\n4N0FLqTj+OdvqNlzMFCtofFdDTZ8oipzuFHQvHLQPg5Ei5GUjJmIVh8Cv6smBa0A\n02DCRNZBdjeMzQQsZ7bSjFTmECLUHINmH/ZmUp2GF07EabruBJsiTPc8yfzuxjBG\nmhIm2KIp1e1iEvyDFwIDAQAB\n-----END PUBLIC KEY-----'
p196
sS'user67'
p197
S'-----BEGIN PUBLIC KEY-----\nMIGfMA0GCSqGSIb3DQEBAQUAA4GNADCBiQKBgQDrrwIAgRPuWiQ0O/v01lhbjYj+\nmtK3zNhhiCtFk4tZcolvj+C72Ul2paLTBhGBM/ldUzjzCi8550LXCRv2R+ERssBa\nOYOl0p9EHsdFqpAD8YbFrf27f7/DGm+XWsfGYvZz729gAb9NOi5Dyp5jEL0FrosQ\ng+bMyezc2UB4pqgPNwIDAQAB\n-----END PUBLIC KEY-----'
p198
sS'user66'
p199
S'-----BEGIN PUBLIC KEY-----\nMIGfMA0GCSqGSIb3DQEBAQUAA4GNADCBiQKBgQC/Pmak5O+UH3xMxO6rdCmxE+M3\nAUi4xnBMnP5ey6cmOz0P5+1Cr+oKvNiuQ42Xyl6NHUrqBc7HHFUZfjkbk/M5itR4\n61m0X+Mplg0Yk3Fx2fCQ8yE+aGDQ6ytBVNgFLqACGjBUDkb9NEsxXSrR/jpNuq92\nEDZVMJAoafriw3uYdwIDAQAB\n-----END PUBLIC KEY-----'
p200
s.