(dp0
S'user54'
p1
(dp2
S'commodities'
p3
(dp4
I0
I10
sI1
I10
sI2
I10
sI3
I10
ssS'funds'
p5
I100
ssS'user55'
p6
(dp7
g3
(dp8
I0
I10
sI1
I10
sI2
I10
sI3
I10
ssg5
I100
ssS'user56'
p9
(dp10
g3
(dp11
I0
I10
sI1
I10
sI2
I10
sI3
I10
ssg5
I100
ssS'user57'
p12
(dp13
g3
(dp14
I0
I10
sI1
I10
sI2
I10
sI3
I10
ssg5
I100
ssS'user50'
p15
(dp16
g3
(dp17
I0
I10
sI1
I10
sI2
I10
sI3
I10
ssg5
I100
ssS'user51'
p18
(dp19
g3
(dp20
I0
I10
sI1
I10
sI2
I10
sI3
I10
ssg5
I100
ssS'user52'
p21
(dp22
g3
(dp23
I0
I10
sI1
I10
sI2
I10
sI3
I10
ssg5
I100
ssS'user53'
p24
(dp25
g3
(dp26
I0
I10
sI1
I10
sI2
I10
sI3
I10
ssg5
I100
ssS'user58'
p27
(dp28
g3
(dp29
I0
I10
sI1
I10
sI2
I10
sI3
I10
ssg5
I100
ssS'user59'
p30
(dp31
g3
(dp32
I0
I10
sI1
I10
sI2
I10
sI3
I10
ssg5
I100
ssS'user43'
p33
(dp34
g3
(dp35
I0
I10
sI1
I10
sI2
I10
sI3
I10
ssg5
I100
ssS'user42'
p36
(dp37
g3
(dp38
I0
I10
sI1
I10
sI2
I10
sI3
I10
ssg5
I100
ssS'user41'
p39
(dp40
g3
(dp41
I0
I10
sI1
I10
sI2
I10
sI3
I10
ssg5
I100
ssS'user40'
p42
(dp43
g3
(dp44
I0
I10
sI1
I10
sI2
I10
sI3
I10
ssg5
I100
ssS'user47'
p45
(dp46
g3
(dp47
I0
I10
sI1
I10
sI2
I10
sI3
I10
ssg5
I100
ssS'user46'
p48
(dp49
g3
(dp50
I0
I10
sI1
I10
sI2
I10
sI3
I10
ssg5
I100
ssS'user45'
p51
(dp52
g3
(dp53
I0
I10
sI1
I10
sI2
I10
sI3
I10
ssg5
I100
ssS'user44'
p54
(dp55
g3
(dp56
I0
I10
sI1
I10
sI2
I10
sI3
I10
ssg5
I100
ssS'user49'
p57
(dp58
g3
(dp59
I0
I10
sI1
I10
sI2
I10
sI3
I10
ssg5
I100
ssS'user48'
p60
(dp61
g3
(dp62
I0
I10
sI1
I10
sI2
I10
sI3
I10
ssg5
I100
ssS'user36'
p63
(dp64
g3
(dp65
I0
I10
sI1
I10
sI2
I10
sI3
I10
ssg5
I100
ssS'user37'
p66
(dp67
g3
(dp68
I0
I10
sI1
I10
sI2
I10
sI3
I10
ssg5
I100
ssS'user34'
p69
(dp70
g3
(dp71
I0
I10
sI1
I10
sI2
I10
sI3
I10
ssg5
I100
ssS'user35'
p72
(dp73
g3
(dp74
I0
I10
sI1
I10
sI2
I10
sI3
I10
ssg5
I100
ssS'user32'
p75
(dp76
g3
(dp77
I0
I10
sI1
I10
sI2
I10
sI3
I10
ssg5
I100
ssS'user33'
p78
(dp79
g3
(dp80
I0
I10
sI1
I10
sI2
I10
sI3
I10
ssg5
I100
ssS'user30'
p81
(dp82
g3
(dp83
I0
I10
sI1
I10
sI2
I10
sI3
I10
ssg5
I100
ssS'user31'
p84
(dp85
g3
(dp86
I0
I10
sI1
I10
sI2
I10
sI3
I10
ssg5
I100
ssS'user38'
p87
(dp88
g3
(dp89
I0
I10
sI1
I10
sI2
I10
sI3
I10
ssg5
I100
ssS'user39'
p90
(dp91
g3
(dp92
I0
I10
sI1
I10
sI2
I10
sI3
I10
ssg5
I100
ssS'user25'
p93
(dp94
g3
(dp95
I0
I10
sI1
I10
sI2
I10
sI3
I10
ssg5
I100
ssS'user24'
p96
(dp97
g3
(dp98
I0
I10
sI1
I10
sI2
I10
sI3
I10
ssg5
I100
ssS'user27'
p99
(dp100
g3
(dp101
I0
I10
sI1
I10
sI2
I10
sI3
I10
ssg5
I100
ssS'user26'
p102
(dp103
g3
(dp104
I0
I10
sI1
I10
sI2
I10
sI3
I10
ssg5
I100
ssS'user21'
p105
(dp106
g3
(dp107
I0
I10
sI1
I10
sI2
I10
sI3
I10
ssg5
I100
ssS'user20'
p108
(dp109
g3
(dp110
I0
I10
sI1
I10
sI2
I10
sI3
I10
ssg5
I100
ssS'user23'
p111
(dp112
g3
(dp113
I0
I10
sI1
I10
sI2
I10
sI3
I10
ssg5
I100
ssS'user22'
p114
(dp115
g3
(dp116
I0
I10
sI1
I10
sI2
I10
sI3
I10
ssg5
I100
ssS'user29'
p117
(dp118
g3
(dp119
I0
I10
sI1
I10
sI2
I10
sI3
I10
ssg5
I100
ssS'user28'
p120
(dp121
g3
(dp122
I0
I10
sI1
I10
sI2
I10
sI3
I10
ssg5
I100
ssS'user98'
p123
(dp124
g3
(dp125
I0
L999999999999999L
sI1
L999999999999999L
sI2
L999999999999999L
sI3
L999999999999999L
ssg5
I0
ssS'user99'
p126
(dp127
g3
(dp128
I0
L999999999999999L
sI1
L999999999999999L
sI2
L999999999999999L
sI3
L999999999999999L
ssg5
L999999999999999L
ssS'user90'
p129
(dp130
g3
(dp131
I0
L999999999999999L
sI1
L999999999999999L
sI2
L999999999999999L
sI3
L999999999999999L
ssg5
I0
ssS'user91'
p132
(dp133
g3
(dp134
I0
L999999999999999L
sI1
L999999999999999L
sI2
L999999999999999L
sI3
L999999999999999L
ssg5
I0
ssS'user92'
p135
(dp136
g3
(dp137
I0
L999999999999999L
sI1
L999999999999999L
sI2
L999999999999999L
sI3
L999999999999999L
ssg5
I0
ssS'user93'
p138
(dp139
g3
(dp140
I0
L999999999999999L
sI1
L999999999999999L
sI2
L999999999999999L
sI3
L999999999999999L
ssg5
I0
ssS'user94'
p141
(dp142
g3
(dp143
I0
L999999999999999L
sI1
L999999999999999L
sI2
L999999999999999L
sI3
L999999999999999L
ssg5
I0
ssS'user95'
p144
(dp145
g3
(dp146
I0
L999999999999999L
sI1
L999999999999999L
sI2
L999999999999999L
sI3
L999999999999999L
ssg5
I0
ssS'user96'
p147
(dp148
g3
(dp149
I0
L999999999999999L
sI1
L999999999999999L
sI2
L999999999999999L
sI3
L999999999999999L
ssg5
I0
ssS'user97'
p150
(dp151
g3
(dp152
I0
L999999999999999L
sI1
L999999999999999L
sI2
L999999999999999L
sI3
L999999999999999L
ssg5
I0
ssS'user10'
p153
(dp154
g3
(dp155
I0
I10
sI1
I10
sI2
I10
sI3
I10
ssg5
I100
ssS'user11'
p156
(dp157
g3
(dp158
I0
I10
sI1
I10
sI2
I10
sI3
I10
ssg5
I100
ssS'user12'
p159
(dp160
g3
(dp161
I0
I10
sI1
I10
sI2
I10
sI3
I10
ssg5
I100
ssS'user13'
p162
(dp163
g3
(dp164
I0
I10
sI1
I10
sI2
I10
sI3
I10
ssg5
I100
ssS'user14'
p165
(dp166
g3
(dp167
I0
I10
sI1
I10
sI2
I10
sI3
I10
ssg5
I100
ssS'user15'
p168
(dp169
g3
(dp170
I0
I10
sI1
I10
sI2
I10
sI3
I10
ssg5
I100
ssS'user16'
p171
(dp172
g3
(dp173
I0
I10
sI1
I10
sI2
I10
sI3
I10
ssg5
I100
ssS'user17'
p174
(dp175
g3
(dp176
I0
I10
sI1
I10
sI2
I10
sI3
I10
ssg5
I100
ssS'user18'
p177
(dp178
g3
(dp179
I0
I10
sI1
I10
sI2
I10
sI3
I10
ssg5
I100
ssS'user19'
p180
(dp181
g3
(dp182
I0
I10
sI1
I10
sI2
I10
sI3
I10
ssg5
I100
ssS'user87'
p183
(dp184
g3
(dp185
I0
I10
sI1
I10
sI2
I10
sI3
I10
ssg5
I100
ssS'user86'
p186
(dp187
g3
(dp188
I0
I10
sI1
I10
sI2
I10
sI3
I10
ssg5
I100
ssS'user85'
p189
(dp190
g3
(dp191
I0
I10
sI1
I10
sI2
I10
sI3
I10
ssg5
I100
ssS'user84'
p192
(dp193
g3
(dp194
I0
I10
sI1
I10
sI2
I10
sI3
I10
ssg5
I100
ssS'user83'
p195
(dp196
g3
(dp197
I0
I10
sI1
I10
sI2
I10
sI3
I10
ssg5
I100
ssS'user82'
p198
(dp199
g3
(dp200
I0
I10
sI1
I10
sI2
I10
sI3
I10
ssg5
I100
ssS'user81'
p201
(dp202
g3
(dp203
I0
I10
sI1
I10
sI2
I10
sI3
I10
ssg5
I100
ssS'user80'
p204
(dp205
g3
(dp206
I0
I10
sI1
I10
sI2
I10
sI3
I10
ssg5
I100
ssS'user89'
p207
(dp208
g3
(dp209
I0
I10
sI1
I10
sI2
I10
sI3
I10
ssg5
I100
ssS'user88'
p210
(dp211
g3
(dp212
I0
I10
sI1
I10
sI2
I10
sI3
I10
ssg5
I100
ssS'user6'
p213
(dp214
g3
(dp215
I0
I10
sI1
I10
sI2
I10
sI3
I10
ssg5
I100
ssS'user7'
p216
(dp217
g3
(dp218
I0
I10
sI1
I10
sI2
I10
sI3
I10
ssg5
I100
ssS'user4'
p219
(dp220
g3
(dp221
I0
I10
sI1
I10
sI2
I10
sI3
I10
ssg5
I100
ssS'user5'
p222
(dp223
g3
(dp224
I0
I10
sI1
I10
sI2
I10
sI3
I10
ssg5
I100
ssS'user2'
p225
(dp226
g3
(dp227
I0
I10
sI1
I10
sI2
I10
sI3
I10
ssg5
I100
ssS'user3'
p228
(dp229
g3
(dp230
I0
I10
sI1
I10
sI2
I10
sI3
I10
ssg5
I100
ssS'user0'
p231
(dp232
g3
(dp233
I0
I10
sI1
I10
sI2
I10
sI3
I10
ssg5
I100
ssS'user1'
p234
(dp235
g3
(dp236
I0
I10
sI1
I10
sI2
I10
sI3
I10
ssg5
I100
ssS'user8'
p237
(dp238
g3
(dp239
I0
I10
sI1
I10
sI2
I10
sI3
I10
ssg5
I100
ssS'user9'
p240
(dp241
g3
(dp242
I0
I10
sI1
I10
sI2
I10
sI3
I10
ssg5
I100
ssS'user78'
p243
(dp244
g3
(dp245
I0
I10
sI1
I10
sI2
I10
sI3
I10
ssg5
I100
ssS'user79'
p246
(dp247
g3
(dp248
I0
I10
sI1
I10
sI2
I10
sI3
I10
ssg5
I100
ssS'user72'
p249
(dp250
g3
(dp251
I0
I10
sI1
I10
sI2
I10
sI3
I10
ssg5
I100
ssS'user73'
p252
(dp253
g3
(dp254
I0
I10
sI1
I10
sI2
I10
sI3
I10
ssg5
I100
ssS'user70'
p255
(dp256
g3
(dp257
I0
I10
sI1
I10
sI2
I10
sI3
I10
ssg5
I100
ssS'user71'
p258
(dp259
g3
(dp260
I0
I10
sI1
I10
sI2
I10
sI3
I10
ssg5
I100
ssS'user76'
p261
(dp262
g3
(dp263
I0
I10
sI1
I10
sI2
I10
sI3
I10
ssg5
I100
ssS'user77'
p264
(dp265
g3
(dp266
I0
I10
sI1
I10
sI2
I10
sI3
I10
ssg5
I100
ssS'user74'
p267
(dp268
g3
(dp269
I0
I10
sI1
I10
sI2
I10
sI3
I10
ssg5
I100
ssS'user75'
p270
(dp271
g3
(dp272
I0
I10
sI1
I10
sI2
I10
sI3
I10
ssg5
I100
ssS'user69'
p273
(dp274
g3
(dp275
I0
I10
sI1
I10
sI2
I10
sI3
I10
ssg5
I100
ssS'user68'
p276
(dp277
g3
(dp278
I0
I10
sI1
I10
sI2
I10
sI3
I10
ssg5
I100
ssS'user61'
p279
(dp280
g3
(dp281
I0
I10
sI1
I10
sI2
I10
sI3
I10
ssg5
I100
ssS'user60'
p282
(dp283
g3
(dp284
I0
I10
sI1
I10
sI2
I10
sI3
I10
ssg5
I100
ssS'user63'
p285
(dp286
g3
(dp287
I0
I10
sI1
I10
sI2
I10
sI3
I10
ssg5
I100
ssS'user62'
p288
(dp289
g3
(dp290
I0
I10
sI1
I10
sI2
I10
sI3
I10
ssg5
I100
ssS'user65'
p291
(dp292
g3
(dp293
I0
I10
sI1
I10
sI2
I10
sI3
I10
ssg5
I100
ssS'user64'
p294
(dp295
g3
(dp296
I0
I10
sI1
I10
sI2
I10
sI3
I10
ssg5
I100
ssS'user67'
p297
(dp298
g3
(dp299
I0
I10
sI1
I10
sI2
I10
sI3
I10
ssg5
I100
ssS'user66'
p300
(dp301
g3
(dp302
I0
I0
sI1
I0
sI2
I0
sI3
I0
ssg5
L999999999999999L
ss.